target datalayout = "e-m:e-p270:32:32-p271:32:32-p272:64:64-i64:64-i128:128-f80:128-n8:16:32:64-S128"
target triple = "x86_64-pc-linux-gnu"

%class.QString = type { %struct.QArrayDataPointer }
%struct.QArrayDataPointer = type { ptr, ptr, i64 }
%class.CaptureFilePropertiesDialog = type { %class.WiresharkDialog.base, ptr }
%class.WiresharkDialog.base = type <{ %class.GeometryStateDialog, ptr, i8, [7 x i8], %class.QString, %class.QList, i32, i8 }>
%class.GeometryStateDialog = type { %class.QDialog, %class.QString }
%class.QDialog = type { %class.QWidget }
%class.QWidget = type { %class.QObject, %class.QPaintDevice.base, ptr }
%class.QObject = type { ptr, %class.QScopedPointer }
%class.QScopedPointer = type { ptr }
%class.QPaintDevice.base = type <{ ptr, i16 }>
%class.QList = type { %struct.QArrayDataPointer.0 }
%struct.QArrayDataPointer.0 = type { ptr, ptr, i64 }
%class.Ui_CaptureFilePropertiesDialog = type { ptr, ptr, ptr, ptr, ptr, ptr, ptr }
%class.WiresharkDialog = type <{ %class.GeometryStateDialog, ptr, i8, [7 x i8], %class.QString, %class.QList, i32, i8, [3 x i8] }>

; Function Attrs: mustprogress uwtable
define void @_ZN27CaptureFilePropertiesDialog13updateWidgetsEv(ptr noundef nonnull align 8 dereferenceable(144) %0) unnamed_addr #0 align 2 {
  %2 = alloca ptr, align 8
  %3 = alloca ptr, align 8
  store ptr %0, ptr %2, align 8
  %4 = load ptr, ptr %2, align 8
  %5 = getelementptr inbounds %class.CaptureFilePropertiesDialog, ptr %4, i32 0, i32 1
  %6 = load ptr, ptr %5, align 8
  %7 = getelementptr inbounds %class.Ui_CaptureFilePropertiesDialog, ptr %6, i32 0, i32 6
  %8 = load ptr, ptr %7, align 8
  %9 = call noundef ptr @_ZNK16QDialogButtonBox6buttonENS_14StandardButtonE(ptr noundef nonnull align 8 dereferenceable(40) %8, i32 noundef 67108864)
  store ptr %9, ptr %3, align 8
  %10 = getelementptr inbounds %class.WiresharkDialog, ptr %4, i32 0, i32 2
  %11 = load i8, ptr %10, align 8
  %12 = trunc i8 %11 to i1
  br i1 %12, label %17, label %13

13:                                               ; preds = %1
  %14 = getelementptr inbounds %class.WiresharkDialog, ptr %4, i32 0, i32 1
  %15 = load ptr, ptr %14, align 8
  %16 = call noundef zeroext i1 @_ZNK11CaptureFile7isValidEv(ptr noundef nonnull align 8 dereferenceable(48) %15)
  br i1 %16, label %23, label %17

17:                                               ; preds = %13, %1
  %18 = load ptr, ptr %3, align 8
  %19 = icmp ne ptr %18, null
  br i1 %19, label %20, label %22

20:                                               ; preds = %17
  %21 = load ptr, ptr %3, align 8
  call void @_ZN7QWidget10setEnabledEb(ptr noundef nonnull align 8 dereferenceable(40) %21, i1 noundef zeroext false)
  br label %22

22:                                               ; preds = %20, %17
  call void @_ZN15WiresharkDialog13updateWidgetsEv(ptr noundef nonnull align 8 dereferenceable(133) %4)
  br label %24

23:                                               ; preds = %13
  call void @_ZN27CaptureFilePropertiesDialog11fillDetailsEv(ptr noundef nonnull align 8 dereferenceable(144) %4)
  call void @_ZN15WiresharkDialog13updateWidgetsEv(ptr noundef nonnull align 8 dereferenceable(133) %4)
  br label %24

24:                                               ; preds = %23, %22
  ret void
}