; Function Attrs: mustprogress uwtable
define void @_ZN27CaptureFilePropertiesDialog13updateWidgetsEv(ptr noundef nonnull align 8 dereferenceable(144) %0) unnamed_addr #0 align 2 {
  %2 = getelementptr inbounds i8, ptr %0, i64 136
  %3 = load ptr, ptr %2, align 8
  %4 = getelementptr inbounds i8, ptr %3, i64 48
  %5 = load ptr, ptr %4, align 8
  %6 = tail call noundef ptr @_ZNK16QDialogButtonBox6buttonENS_14StandardButtonE(ptr noundef nonnull align 8 dereferenceable(40) %5, i32 noundef 67108864)
  %7 = getelementptr inbounds i8, ptr %0, i64 72
  %8 = load i8, ptr %7, align 8
  %9 = and i8 %8, 1
  %.not = icmp eq i8 %9, 0
  br i1 %.not, label %10, label %14

10:                                               ; preds = %1
  %11 = getelementptr inbounds i8, ptr %0, i64 64
  %12 = load ptr, ptr %11, align 8
  %13 = tail call noundef zeroext i1 @_ZNK11CaptureFile7isValidEv(ptr noundef nonnull align 8 dereferenceable(48) %12)
  br i1 %13, label %16, label %14

14:                                               ; preds = %10, %1
  %.not3 = icmp eq ptr %6, null
  br i1 %.not3, label %17, label %15

15:                                               ; preds = %14
  tail call void @_ZN7QWidget10setEnabledEb(ptr noundef nonnull align 8 dereferenceable(40) %6, i1 noundef zeroext false)
  br label %17

16:                                               ; preds = %10
  tail call void @_ZN27CaptureFilePropertiesDialog11fillDetailsEv(ptr noundef nonnull align 8 dereferenceable(144) %0)
  br label %17

17:                                               ; preds = %14, %15, %16
  tail call void @_ZN15WiresharkDialog13updateWidgetsEv(ptr noundef nonnull align 8 dereferenceable(133) %0)
  ret void
}